target datalayout = "e-m:e-p270:32:32-p271:32:32-p272:64:64-i64:64-i128:128-f80:128-n8:16:32:64-S128"
target triple = "x86_64-pc-linux-gnu"

%struct._lv_keyboard_t = type { %struct._lv_buttonmatrix_t, ptr, i32, i8 }
%struct._lv_buttonmatrix_t = type { %struct._lv_obj_t, ptr, ptr, ptr, i32, i32, i32, i8 }
%struct._lv_obj_t = type { ptr, ptr, ptr, ptr, ptr, %struct.lv_area_t, i32, i16, i16 }
%struct.lv_area_t = type { i32, i32, i32, i32 }

@kb_map = internal global [10 x ptr] [ptr @default_kb_map_lc, ptr @default_kb_map_uc, ptr @default_kb_map_spec, ptr @default_kb_map_num, ptr @default_kb_map_lc, ptr @default_kb_map_lc, ptr @default_kb_map_lc, ptr @default_kb_map_lc, ptr null, ptr null], align 16

; Function Attrs: nounwind uwtable
define internal void @lv_keyboard_update_map(ptr noundef %0) #0 {
  %2 = alloca ptr, align 8
  %3 = alloca ptr, align 8
  store ptr %0, ptr %2, align 8, !tbaa !8
  call void @llvm.lifetime.start.p0(i64 8, ptr %3) #3
  %4 = load ptr, ptr %2, align 8, !tbaa !8
  store ptr %4, ptr %3, align 8, !tbaa !10
  %5 = load ptr, ptr %2, align 8, !tbaa !8
  %6 = load ptr, ptr %3, align 8, !tbaa !10
  %7 = getelementptr inbounds nuw %struct._lv_keyboard_t, ptr %6, i32 0, i32 2
  %8 = load i32, ptr %7, align 8, !tbaa !22
  %9 = zext i32 %8 to i64
  %10 = getelementptr inbounds nuw [10 x ptr], ptr @kb_map, i64 0, i64 %9
  %11 = load ptr, ptr %10, align 8, !tbaa !24
  call void @lv_buttonmatrix_set_map(ptr noundef %5, ptr noundef %11)
  %12 = load ptr, ptr %2, align 8, !tbaa !8
  call void @lv_keyboard_update_ctrl_map(ptr noundef %12)
  call void @llvm.lifetime.end.p0(i64 8, ptr %3) #3
  ret void
}

; Function Attrs: nounwind uwtable
define internal void @lv_keyboard_constructor(ptr noundef %0, ptr noundef %1) #0 {
  %3 = alloca ptr, align 8
  %4 = alloca ptr, align 8
  %5 = alloca ptr, align 8
  store ptr %0, ptr %3, align 8, !tbaa !3
  store ptr %1, ptr %4, align 8, !tbaa !8
  %6 = load ptr, ptr %4, align 8, !tbaa !8
  call void @lv_obj_remove_flag(ptr noundef %6, i32 noundef 4)
  call void @llvm.lifetime.start.p0(i64 8, ptr %5) #3
  %7 = load ptr, ptr %4, align 8, !tbaa !8
  store ptr %7, ptr %5, align 8, !tbaa !10
  %8 = load ptr, ptr %5, align 8, !tbaa !10
  %9 = getelementptr inbounds nuw %struct._lv_keyboard_t, ptr %8, i32 0, i32 1
  store ptr null, ptr %9, align 8, !tbaa !12
  %10 = load ptr, ptr %5, align 8, !tbaa !10
  %11 = getelementptr inbounds nuw %struct._lv_keyboard_t, ptr %10, i32 0, i32 2
  store i32 0, ptr %11, align 8, !tbaa !22
  %12 = load ptr, ptr %5, align 8, !tbaa !10
  %13 = getelementptr inbounds nuw %struct._lv_keyboard_t, ptr %12, i32 0, i32 3
  %14 = load i8, ptr %13, align 4
  %15 = and i8 %14, -2
  %16 = or i8 %15, 0
  store i8 %16, ptr %13, align 4
  %17 = load ptr, ptr %4, align 8, !tbaa !8
  call void @lv_obj_align(ptr noundef %17, i32 noundef 5, i32 noundef 0, i32 noundef 0)
  %18 = load ptr, ptr %4, align 8, !tbaa !8
  %19 = call ptr @lv_obj_add_event_cb(ptr noundef %18, ptr noundef @lv_keyboard_def_event_cb, i32 noundef 35, ptr noundef null)
  %20 = load ptr, ptr %4, align 8, !tbaa !8
  call void @lv_obj_set_style_base_dir(ptr noundef %20, i32 noundef 0, i32 noundef 0)
  %21 = load ptr, ptr %4, align 8, !tbaa !8
  call void @lv_keyboard_update_map(ptr noundef %21)
  call void @llvm.lifetime.end.p0(i64 8, ptr %5) #3
  ret void
}