; Function Attrs: nounwind uwtable
define internal void @lv_keyboard_constructor(ptr readnone captures(none) %0, ptr noundef %1) #0 {
  tail call void @lv_obj_remove_flag(ptr noundef %1, i32 noundef 4) #4
  %3 = getelementptr inbounds nuw i8, ptr %1, i64 104
  store ptr null, ptr %3, align 8, !tbaa !3
  %4 = getelementptr inbounds nuw i8, ptr %1, i64 112
  store i32 0, ptr %4, align 8, !tbaa !18
  %5 = getelementptr inbounds nuw i8, ptr %1, i64 116
  %6 = load i8, ptr %5, align 4
  %7 = and i8 %6, -2
  store i8 %7, ptr %5, align 4
  tail call void @lv_obj_align(ptr noundef %1, i32 noundef 5, i32 noundef 0, i32 noundef 0) #4
  %8 = tail call ptr @lv_obj_add_event_cb(ptr noundef %1, ptr noundef nonnull @lv_keyboard_def_event_cb, i32 noundef 35, ptr noundef null) #4
  tail call void @lv_obj_set_style_base_dir(ptr noundef %1, i32 noundef 0, i32 noundef 0) #4
  %9 = load i32, ptr %4, align 8, !tbaa !18
  %10 = zext i32 %9 to i64
  %11 = getelementptr inbounds nuw [10 x ptr], ptr @kb_map, i64 0, i64 %10
  %12 = load ptr, ptr %11, align 8, !tbaa !19
  tail call void @lv_buttonmatrix_set_map(ptr noundef %1, ptr noundef %12) #4
  tail call fastcc void @lv_keyboard_update_ctrl_map(ptr noundef %1)
  ret void
}